target datalayout = "e-m:e-p270:32:32-p271:32:32-p272:64:64-i64:64-i128:128-f80:128-n8:16:32:64-S128"
target triple = "x86_64-pc-linux-gnu"

@stderr = external global ptr, align 8
@exit_code = external global i32, align 4
@.str.11 = private unnamed_addr constant [2 x i8] c"\0A\00", align 1
@.str.33 = private unnamed_addr constant [29 x i8] c"unrecognized job state value\00", align 1
@.str.34 = private unnamed_addr constant [3 x i8] c"%u\00", align 1
@.str.35 = private unnamed_addr constant [6 x i8] c"DRAIN\00", align 1
@.str.36 = private unnamed_addr constant [5 x i8] c"FAIL\00", align 1
@.str.37 = private unnamed_addr constant [8 x i8] c"REBOOT^\00", align 1
@.str.38 = private unnamed_addr constant [7 x i8] c"REBOOT\00", align 1
@.str.39 = private unnamed_addr constant [19 x i8] c"Invalid state: %s\0A\00", align 1
@.str.40 = private unnamed_addr constant [24 x i8] c"Valid node states are: \00", align 1
@.str.41 = private unnamed_addr constant [12 x i8] c"DRAIN FAIL \00", align 1
@.str.42 = private unnamed_addr constant [4 x i8] c"%s \00", align 1

; Function Attrs: nounwind uwtable
define internal i32 @_decode_node_state(ptr noundef %0) #0 {
  %2 = alloca i32, align 4
  %3 = alloca ptr, align 8
  %4 = alloca i32, align 4
  %5 = alloca i32, align 4
  %6 = alloca i32, align 4
  store ptr %0, ptr %3, align 8
  call void @llvm.lifetime.start.p0(i64 4, ptr %4) #7
  %7 = load ptr, ptr %3, align 8
  %8 = call i64 @strlen(ptr noundef %7) #8
  %9 = trunc i64 %8 to i32
  store i32 %9, ptr %4, align 4
  %10 = load ptr, ptr %3, align 8
  %11 = load i32, ptr %4, align 4
  %12 = icmp sgt i32 %11, 3
  br i1 %12, label %13, label %15

13:                                               ; preds = %1
  %14 = load i32, ptr %4, align 4
  br label %16

15:                                               ; preds = %1
  br label %16

16:                                               ; preds = %15, %13
  %17 = phi i32 [ %14, %13 ], [ 3, %15 ]
  %18 = sext i32 %17 to i64
  %19 = call i32 @xstrncasecmp(ptr noundef %10, ptr noundef @.str.35, i64 noundef %18)
  %20 = icmp ne i32 %19, 0
  br i1 %20, label %22, label %21

21:                                               ; preds = %16
  store i32 512, ptr %2, align 4
  store i32 1, ptr %5, align 4
  br label %118

22:                                               ; preds = %16
  %23 = load ptr, ptr %3, align 8
  %24 = load i32, ptr %4, align 4
  %25 = icmp sgt i32 %24, 3
  br i1 %25, label %26, label %28

26:                                               ; preds = %22
  %27 = load i32, ptr %4, align 4
  br label %29

28:                                               ; preds = %22
  br label %29

29:                                               ; preds = %28, %26
  %30 = phi i32 [ %27, %26 ], [ 3, %28 ]
  %31 = sext i32 %30 to i64
  %32 = call i32 @xstrncasecmp(ptr noundef %23, ptr noundef @.str.36, i64 noundef %31)
  %33 = icmp ne i32 %32, 0
  br i1 %33, label %35, label %34

34:                                               ; preds = %29
  store i32 8192, ptr %2, align 4
  store i32 1, ptr %5, align 4
  br label %118

35:                                               ; preds = %29
  %36 = load ptr, ptr %3, align 8
  %37 = load i32, ptr %4, align 4
  %38 = icmp sgt i32 %37, 7
  br i1 %38, label %39, label %41

39:                                               ; preds = %35
  %40 = load i32, ptr %4, align 4
  br label %42

41:                                               ; preds = %35
  br label %42

42:                                               ; preds = %41, %39
  %43 = phi i32 [ %40, %39 ], [ 7, %41 ]
  %44 = sext i32 %43 to i64
  %45 = call i32 @xstrncasecmp(ptr noundef %36, ptr noundef @.str.37, i64 noundef %44)
  %46 = icmp ne i32 %45, 0
  br i1 %46, label %48, label %47

47:                                               ; preds = %42
  store i32 1048576, ptr %2, align 4
  store i32 1, ptr %5, align 4
  br label %118

48:                                               ; preds = %42
  %49 = load ptr, ptr %3, align 8
  %50 = load i32, ptr %4, align 4
  %51 = icmp sgt i32 %50, 3
  br i1 %51, label %52, label %54

52:                                               ; preds = %48
  %53 = load i32, ptr %4, align 4
  br label %55

54:                                               ; preds = %48
  br label %55

55:                                               ; preds = %54, %52
  %56 = phi i32 [ %53, %52 ], [ 3, %54 ]
  %57 = sext i32 %56 to i64
  %58 = call i32 @xstrncasecmp(ptr noundef %49, ptr noundef @.str.38, i64 noundef %57)
  %59 = icmp ne i32 %58, 0
  br i1 %59, label %61, label %60

60:                                               ; preds = %55
  store i32 65536, ptr %2, align 4
  store i32 1, ptr %5, align 4
  br label %118

61:                                               ; preds = %55
  call void @llvm.lifetime.start.p0(i64 4, ptr %6) #7
  store i32 0, ptr %6, align 4
  br label %62

62:                                               ; preds = %82, %61
  %63 = load i32, ptr %6, align 4
  %64 = icmp ult i32 %63, 7
  br i1 %64, label %65, label %85

65:                                               ; preds = %62
  %66 = load i32, ptr %6, align 4
  %67 = call ptr @node_state_string(i32 noundef %66)
  %68 = load ptr, ptr %3, align 8
  %69 = load i32, ptr %4, align 4
  %70 = icmp sgt i32 %69, 3
  br i1 %70, label %71, label %73

71:                                               ; preds = %65
  %72 = load i32, ptr %4, align 4
  br label %74

73:                                               ; preds = %65
  br label %74

74:                                               ; preds = %73, %71
  %75 = phi i32 [ %72, %71 ], [ 3, %73 ]
  %76 = sext i32 %75 to i64
  %77 = call i32 @xstrncasecmp(ptr noundef %67, ptr noundef %68, i64 noundef %76)
  %78 = icmp eq i32 %77, 0
  br i1 %78, label %79, label %81

79:                                               ; preds = %74
  %80 = load i32, ptr %6, align 4
  store i32 %80, ptr %2, align 4
  store i32 1, ptr %5, align 4
  br label %111

81:                                               ; preds = %74
  br label %82

82:                                               ; preds = %81
  %83 = load i32, ptr %6, align 4
  %84 = add i32 %83, 1
  store i32 %84, ptr %6, align 4
  br label %62, !llvm.loop !16

85:                                               ; preds = %62
  %86 = load i32, ptr %6, align 4
  %87 = icmp eq i32 %86, 7
  br i1 %87, label %88, label %110

88:                                               ; preds = %85
  store i32 1, ptr @exit_code, align 4
  %89 = load ptr, ptr @stderr, align 8
  %90 = load ptr, ptr %3, align 8
  %91 = call i32 (ptr, ptr, ...) @fprintf(ptr noundef %89, ptr noundef @.str.39, ptr noundef %90) #7
  %92 = load ptr, ptr @stderr, align 8
  %93 = call i32 (ptr, ptr, ...) @fprintf(ptr noundef %92, ptr noundef @.str.40) #7
  %94 = load ptr, ptr @stderr, align 8
  %95 = call i32 (ptr, ptr, ...) @fprintf(ptr noundef %94, ptr noundef @.str.41) #7
  store i32 0, ptr %6, align 4
  br label %96

96:                                               ; preds = %104, %88
  %97 = load i32, ptr %6, align 4
  %98 = icmp ult i32 %97, 7
  br i1 %98, label %99, label %107

99:                                               ; preds = %96
  %100 = load ptr, ptr @stderr, align 8
  %101 = load i32, ptr %6, align 4
  %102 = call ptr @node_state_string(i32 noundef %101)
  %103 = call i32 (ptr, ptr, ...) @fprintf(ptr noundef %100, ptr noundef @.str.42, ptr noundef %102) #7
  br label %104

104:                                              ; preds = %99
  %105 = load i32, ptr %6, align 4
  %106 = add i32 %105, 1
  store i32 %106, ptr %6, align 4
  br label %96, !llvm.loop !17

107:                                              ; preds = %96
  %108 = load ptr, ptr @stderr, align 8
  %109 = call i32 (ptr, ptr, ...) @fprintf(ptr noundef %108, ptr noundef @.str.11) #7
  br label %110

110:                                              ; preds = %107, %85
  store i32 0, ptr %5, align 4
  br label %111

111:                                              ; preds = %110, %79
  call void @llvm.lifetime.end.p0(i64 4, ptr %6) #7
  %112 = load i32, ptr %5, align 4
  switch i32 %112, label %118 [
    i32 0, label %113
  ]

113:                                              ; preds = %111
  br label %114

114:                                              ; preds = %113
  br label %115

115:                                              ; preds = %114
  br label %116

116:                                              ; preds = %115
  br label %117

117:                                              ; preds = %116
  store i32 -2, ptr %2, align 4
  store i32 1, ptr %5, align 4
  br label %118

118:                                              ; preds = %117, %111, %60, %47, %34, %21
  call void @llvm.lifetime.end.p0(i64 4, ptr %4) #7
  %119 = load i32, ptr %2, align 4
  ret i32 %119
}

; Function Attrs: nounwind uwtable
define internal i32 @_addto_state_char_list_internal(ptr noundef %0, ptr noundef %1, ptr noundef %2) #0 {
  %4 = alloca i32, align 4
  %5 = alloca ptr, align 8
  %6 = alloca ptr, align 8
  %7 = alloca ptr, align 8
  %8 = alloca i32, align 4
  %9 = alloca ptr, align 8
  %10 = alloca i32, align 4
  store ptr %0, ptr %5, align 8
  store ptr %1, ptr %6, align 8
  store ptr %2, ptr %7, align 8
  call void @llvm.lifetime.start.p0(i64 4, ptr %8) #7
  call void @llvm.lifetime.start.p0(i64 8, ptr %9) #7
  store ptr null, ptr %9, align 8
  %11 = load ptr, ptr %6, align 8
  %12 = call i32 @_decode_node_state(ptr noundef %11)
  store i32 %12, ptr %8, align 4
  %13 = load i32, ptr %8, align 4
  %14 = icmp eq i32 %13, -2
  br i1 %14, label %15, label %16

15:                                               ; preds = %3
  call void (ptr, ...) @fatal(ptr noundef @.str.33) #10
  unreachable

16:                                               ; preds = %3
  %17 = load i32, ptr %8, align 4
  %18 = call ptr (ptr, ...) @xstrdup_printf(ptr noundef @.str.34, i32 noundef %17)
  store ptr %18, ptr %9, align 8
  %19 = load ptr, ptr %5, align 8
  %20 = load ptr, ptr %9, align 8
  %21 = call ptr @list_find_first(ptr noundef %19, ptr noundef @slurm_find_char_in_list, ptr noundef %20)
  %22 = icmp ne ptr %21, null
  br i1 %22, label %26, label %23

23:                                               ; preds = %16
  %24 = load ptr, ptr %5, align 8
  %25 = load ptr, ptr %9, align 8
  call void @list_append(ptr noundef %24, ptr noundef %25)
  store i32 1, ptr %4, align 4
  store i32 1, ptr %10, align 4
  br label %27

26:                                               ; preds = %16
  call void @slurm_xfree(ptr noundef %9)
  store i32 0, ptr %4, align 4
  store i32 1, ptr %10, align 4
  br label %27

27:                                               ; preds = %26, %23
  call void @llvm.lifetime.end.p0(i64 8, ptr %9) #7
  call void @llvm.lifetime.end.p0(i64 4, ptr %8) #7
  %28 = load i32, ptr %4, align 4
  ret i32 %28
}