; Function Attrs: nounwind uwtable
define internal range(i32 0, 2) i32 @_addto_state_char_list_internal(ptr noundef %0, ptr noundef %1, ptr readnone captures(none) %2) #0 {
  %4 = alloca ptr, align 8
  call void @llvm.lifetime.start.p0(i64 8, ptr nonnull %4) #11
  %5 = tail call i64 @strlen(ptr noundef nonnull dereferenceable(1) %1) #13
  %6 = trunc i64 %5 to i32
  %7 = tail call i32 @llvm.smax.i32(i32 %6, i32 3)
  %8 = zext nneg i32 %7 to i64
  %9 = tail call i32 @xstrncasecmp(ptr noundef nonnull %1, ptr noundef nonnull @.str.35, i64 noundef %8) #11
  %.not.i = icmp eq i32 %9, 0
  br i1 %.not.i, label %.loopexit, label %10

10:                                               ; preds = %3
  %11 = tail call i32 @xstrncasecmp(ptr noundef nonnull %1, ptr noundef nonnull @.str.36, i64 noundef %8) #11
  %.not29.i = icmp eq i32 %11, 0
  br i1 %.not29.i, label %.loopexit, label %12

12:                                               ; preds = %10
  %13 = tail call i32 @llvm.smax.i32(i32 %6, i32 7)
  %14 = zext nneg i32 %13 to i64
  %15 = tail call i32 @xstrncasecmp(ptr noundef nonnull %1, ptr noundef nonnull @.str.37, i64 noundef %14) #11
  %.not30.i = icmp eq i32 %15, 0
  br i1 %.not30.i, label %.loopexit, label %16

16:                                               ; preds = %12
  %17 = tail call i32 @xstrncasecmp(ptr noundef nonnull %1, ptr noundef nonnull @.str.38, i64 noundef %8) #11
  %.not31.i = icmp eq i32 %17, 0
  br i1 %.not31.i, label %.loopexit, label %.preheader.i

.preheader.i:                                     ; preds = %16, %21
  %.033.i = phi i32 [ %22, %21 ], [ 0, %16 ]
  %18 = tail call ptr @node_state_string(i32 noundef %.033.i) #11
  %19 = tail call i32 @xstrncasecmp(ptr noundef %18, ptr noundef nonnull %1, i64 noundef %8) #11
  %20 = icmp eq i32 %19, 0
  br i1 %20, label %.loopexit, label %21

21:                                               ; preds = %.preheader.i
  %22 = add nuw nsw i32 %.033.i, 1
  %exitcond.i = icmp eq i32 %22, 7
  br i1 %exitcond.i, label %23, label %.preheader.i, !llvm.loop !16

23:                                               ; preds = %21
  store i32 1, ptr @exit_code, align 4
  %24 = load ptr, ptr @stderr, align 8
  %25 = tail call i32 (ptr, ptr, ...) @fprintf(ptr noundef %24, ptr noundef nonnull @.str.39, ptr noundef nonnull %1) #12
  %26 = load ptr, ptr @stderr, align 8
  %27 = tail call i64 @fwrite(ptr nonnull @.str.40, i64 23, i64 1, ptr %26) #15
  %28 = load ptr, ptr @stderr, align 8
  %29 = tail call i64 @fwrite(ptr nonnull @.str.41, i64 11, i64 1, ptr %28) #15
  br label %30

30:                                               ; preds = %30, %23
  %.134.i = phi i32 [ 0, %23 ], [ %34, %30 ]
  %31 = load ptr, ptr @stderr, align 8
  %32 = tail call ptr @node_state_string(i32 noundef %.134.i) #11
  %33 = tail call i32 (ptr, ptr, ...) @fprintf(ptr noundef %31, ptr noundef nonnull @.str.42, ptr noundef %32) #12
  %34 = add nuw nsw i32 %.134.i, 1
  %exitcond36.not.i = icmp eq i32 %34, 7
  br i1 %exitcond36.not.i, label %35, label %30, !llvm.loop !17

35:                                               ; preds = %30
  %36 = load ptr, ptr @stderr, align 8
  %fputc.i = tail call i32 @fputc(i32 10, ptr %36)
  tail call void (ptr, ...) @fatal(ptr noundef nonnull @.str.33) #16
  unreachable

.loopexit:                                        ; preds = %.preheader.i, %3, %10, %12, %16
  %.027.i.ph = phi i32 [ 65536, %16 ], [ 1048576, %12 ], [ 8192, %10 ], [ 512, %3 ], [ %.033.i, %.preheader.i ]
  %37 = tail call ptr (ptr, ...) @xstrdup_printf(ptr noundef nonnull @.str.34, i32 noundef %.027.i.ph) #11
  store ptr %37, ptr %4, align 8
  %38 = tail call ptr @list_find_first(ptr noundef %0, ptr noundef nonnull @slurm_find_char_in_list, ptr noundef %37) #11
  %.not = icmp eq ptr %38, null
  br i1 %.not, label %39, label %40

39:                                               ; preds = %.loopexit
  tail call void @list_append(ptr noundef %0, ptr noundef %37) #11
  br label %41

40:                                               ; preds = %.loopexit
  call void @slurm_xfree(ptr noundef nonnull %4) #11
  br label %41

41:                                               ; preds = %40, %39
  %.0 = phi i32 [ 0, %40 ], [ 1, %39 ]
  call void @llvm.lifetime.end.p0(i64 8, ptr nonnull %4) #11
  ret i32 %.0
}